target datalayout = "e-m:e-p270:32:32-p271:32:32-p272:64:64-i64:64-i128:128-f80:128-n8:16:32:64-S128"
target triple = "x86_64-pc-linux-gnu"

%struct.AVFormatContext = type { ptr, ptr, ptr, ptr, ptr, i32, i32, ptr, i32, ptr, i32, ptr, ptr, i64, i64, i64, i32, i32, i32, i64, i64, ptr, i32, i32, ptr, i32, i32, i32, i32, ptr, i64, i32, i32, %struct.AVIOInterruptCB, i32, i32, i32, i32, i64, i32, i32, i32, i32, i32, i32, i32, i32, i32, i32, i32, i32, i64, i32, i32, i32, i32, i32, ptr, ptr, ptr, ptr, i32, ptr, ptr, ptr, ptr, i32, ptr, ptr, i64, ptr, ptr, ptr, i64 }
%struct.AVIOInterruptCB = type { ptr, ptr }
%struct.WebMChunkContext = type { ptr, ptr, i32, i32, ptr, i64, i64, ptr, i32 }

; Function Attrs: nounwind uwtable
define internal i32 @chunk_start(ptr noundef %0) #0 {
  %2 = alloca i32, align 4
  %3 = alloca ptr, align 8
  %4 = alloca ptr, align 8
  %5 = alloca ptr, align 8
  %6 = alloca i32, align 4
  %7 = alloca i32, align 4
  store ptr %0, ptr %3, align 8, !tbaa !4
  call void @llvm.lifetime.start.p0(i64 8, ptr %4) #6
  %8 = load ptr, ptr %3, align 8, !tbaa !4
  %9 = getelementptr inbounds nuw %struct.AVFormatContext, ptr %8, i32 0, i32 3
  %10 = load ptr, ptr %9, align 8, !tbaa !9
  store ptr %10, ptr %4, align 8, !tbaa !26
  call void @llvm.lifetime.start.p0(i64 8, ptr %5) #6
  %11 = load ptr, ptr %4, align 8, !tbaa !26
  %12 = getelementptr inbounds nuw %struct.WebMChunkContext, ptr %11, i32 0, i32 7
  %13 = load ptr, ptr %12, align 8, !tbaa !28
  store ptr %13, ptr %5, align 8, !tbaa !4
  call void @llvm.lifetime.start.p0(i64 4, ptr %6) #6
  %14 = load ptr, ptr %5, align 8, !tbaa !4
  %15 = getelementptr inbounds nuw %struct.AVFormatContext, ptr %14, i32 0, i32 4
  %16 = call i32 @avio_open_dyn_buf(ptr noundef %15)
  store i32 %16, ptr %6, align 4, !tbaa !33
  %17 = load i32, ptr %6, align 4, !tbaa !33
  %18 = icmp slt i32 %17, 0
  br i1 %18, label %19, label %21

19:                                               ; preds = %1
  %20 = load i32, ptr %6, align 4, !tbaa !33
  store i32 %20, ptr %2, align 4
  store i32 1, ptr %7, align 4
  br label %26

21:                                               ; preds = %1
  %22 = load ptr, ptr %4, align 8, !tbaa !26
  %23 = getelementptr inbounds nuw %struct.WebMChunkContext, ptr %22, i32 0, i32 3
  %24 = load i32, ptr %23, align 4, !tbaa !94
  %25 = add nsw i32 %24, 1
  store i32 %25, ptr %23, align 4, !tbaa !94
  store i32 0, ptr %2, align 4
  store i32 1, ptr %7, align 4
  br label %26

26:                                               ; preds = %21, %19
  call void @llvm.lifetime.end.p0(i64 4, ptr %6) #6
  call void @llvm.lifetime.end.p0(i64 8, ptr %5) #6
  call void @llvm.lifetime.end.p0(i64 8, ptr %4) #6
  %27 = load i32, ptr %2, align 4
  ret i32 %27
}

; Function Attrs: nounwind uwtable
define internal i32 @webm_chunk_write_trailer(ptr noundef %0) #0 {
  %2 = alloca i32, align 4
  %3 = alloca ptr, align 8
  %4 = alloca ptr, align 8
  %5 = alloca ptr, align 8
  %6 = alloca i32, align 4
  %7 = alloca i32, align 4
  store ptr %0, ptr %3, align 8, !tbaa !4
  call void @llvm.lifetime.start.p0(i64 8, ptr %4) #6
  %8 = load ptr, ptr %3, align 8, !tbaa !4
  %9 = getelementptr inbounds nuw %struct.AVFormatContext, ptr %8, i32 0, i32 3
  %10 = load ptr, ptr %9, align 8, !tbaa !9
  store ptr %10, ptr %4, align 8, !tbaa !26
  call void @llvm.lifetime.start.p0(i64 8, ptr %5) #6
  %11 = load ptr, ptr %4, align 8, !tbaa !26
  %12 = getelementptr inbounds nuw %struct.WebMChunkContext, ptr %11, i32 0, i32 7
  %13 = load ptr, ptr %12, align 8, !tbaa !28
  store ptr %13, ptr %5, align 8, !tbaa !4
  call void @llvm.lifetime.start.p0(i64 4, ptr %6) #6
  %14 = load ptr, ptr %5, align 8, !tbaa !4
  %15 = getelementptr inbounds nuw %struct.AVFormatContext, ptr %14, i32 0, i32 4
  %16 = load ptr, ptr %15, align 8, !tbaa !65
  %17 = icmp ne ptr %16, null
  br i1 %17, label %26, label %18

18:                                               ; preds = %1
  %19 = load ptr, ptr %3, align 8, !tbaa !4
  %20 = call i32 @chunk_start(ptr noundef %19)
  store i32 %20, ptr %6, align 4, !tbaa !33
  %21 = load i32, ptr %6, align 4, !tbaa !33
  %22 = icmp slt i32 %21, 0
  br i1 %22, label %23, label %25

23:                                               ; preds = %18
  %24 = load i32, ptr %6, align 4, !tbaa !33
  store i32 %24, ptr %2, align 4
  store i32 1, ptr %7, align 4
  br label %36

25:                                               ; preds = %18
  br label %26

26:                                               ; preds = %25, %1
  %27 = load ptr, ptr %5, align 8, !tbaa !4
  %28 = call i32 @av_write_trailer(ptr noundef %27)
  store i32 %28, ptr %6, align 4, !tbaa !33
  %29 = load i32, ptr %6, align 4, !tbaa !33
  %30 = icmp slt i32 %29, 0
  br i1 %30, label %31, label %33

31:                                               ; preds = %26
  %32 = load i32, ptr %6, align 4, !tbaa !33
  store i32 %32, ptr %2, align 4
  store i32 1, ptr %7, align 4
  br label %36

33:                                               ; preds = %26
  %34 = load ptr, ptr %3, align 8, !tbaa !4
  %35 = call i32 @chunk_end(ptr noundef %34, i32 noundef 0)
  store i32 %35, ptr %2, align 4
  store i32 1, ptr %7, align 4
  br label %36

36:                                               ; preds = %33, %31, %23
  call void @llvm.lifetime.end.p0(i64 4, ptr %6) #6
  call void @llvm.lifetime.end.p0(i64 8, ptr %5) #6
  call void @llvm.lifetime.end.p0(i64 8, ptr %4) #6
  %37 = load i32, ptr %2, align 4
  ret i32 %37
}