; Function Attrs: nounwind uwtable
define internal range(i32 -2147483648, 1) i32 @webm_chunk_write_trailer(ptr noundef %0) #0 {
  %2 = getelementptr inbounds nuw i8, ptr %0, i64 24
  %3 = load ptr, ptr %2, align 8, !tbaa !4
  %4 = getelementptr inbounds nuw i8, ptr %3, i64 48
  %5 = load ptr, ptr %4, align 8, !tbaa !24
  %6 = getelementptr inbounds nuw i8, ptr %5, i64 32
  %7 = load ptr, ptr %6, align 8, !tbaa !57
  %.not = icmp eq ptr %7, null
  br i1 %.not, label %8, label %14

8:                                                ; preds = %1
  %9 = tail call i32 @avio_open_dyn_buf(ptr noundef nonnull %6) #6
  %10 = icmp slt i32 %9, 0
  br i1 %10, label %chunk_start.exit.thread, label %chunk_start.exit

chunk_start.exit:                                 ; preds = %8
  %11 = getelementptr inbounds nuw i8, ptr %3, i64 20
  %12 = load i32, ptr %11, align 4, !tbaa !60
  %13 = add nsw i32 %12, 1
  store i32 %13, ptr %11, align 4, !tbaa !60
  br label %14

14:                                               ; preds = %chunk_start.exit, %1
  %15 = tail call i32 @av_write_trailer(ptr noundef nonnull %5) #6
  %16 = icmp slt i32 %15, 0
  br i1 %16, label %chunk_start.exit.thread, label %17

17:                                               ; preds = %14
  %18 = tail call fastcc i32 @chunk_end(ptr noundef nonnull %0, i32 noundef 0)
  br label %chunk_start.exit.thread

chunk_start.exit.thread:                          ; preds = %8, %14, %17
  %.0 = phi i32 [ %18, %17 ], [ %15, %14 ], [ %9, %8 ]
  ret i32 %.0
}